target datalayout = "e-m:e-p270:32:32-p271:32:32-p272:64:64-i64:64-i128:128-f80:128-n8:16:32:64-S128"
target triple = "x86_64-pc-linux-gnu"

%struct.mpitest_st = type { ptr, ptr, i64 }

@.str.17 = private unnamed_addr constant [25 x i8] c"../openssl/test/bntest.c\00", align 1
@.str.238 = private unnamed_addr constant [14 x i8] c"bn = BN_new()\00", align 1
@.str.242 = private unnamed_addr constant [3 x i8] c"bn\00", align 1
@.str.338 = private unnamed_addr constant [29 x i8] c"BN_asc2bn(&bn, test->base10)\00", align 1
@.str.340 = private unnamed_addr constant [16 x i8] c"sizeof(scratch)\00", align 1
@.str.342 = private unnamed_addr constant [10 x i8] c"test->mpi\00", align 1
@.str.345 = private unnamed_addr constant [4 x i8] c"bn2\00", align 1
@.str.354 = private unnamed_addr constant [47 x i8] c"BN_signed_bn2bin(bn, scratch, sizeof(scratch))\00", align 1
@.str.355 = private unnamed_addr constant [50 x i8] c"copy_reversed(reversed, scratch, sizeof(scratch))\00", align 1
@.str.356 = private unnamed_addr constant [12 x i8] c"scratch + i\00", align 1
@.str.357 = private unnamed_addr constant [55 x i8] c"bn2 = BN_signed_bin2bn(scratch, sizeof(scratch), NULL)\00", align 1
@.str.358 = private unnamed_addr constant [59 x i8] c"bn2 = BN_signed_lebin2bn(reversed, sizeof(reversed), NULL)\00", align 1
@.str.359 = private unnamed_addr constant [49 x i8] c"BN_signed_bn2lebin(bn, scratch, sizeof(scratch))\00", align 1
@.str.360 = private unnamed_addr constant [13 x i8] c"reversed + i\00", align 1
@.str.361 = private unnamed_addr constant [57 x i8] c"bn2 = BN_signed_lebin2bn(scratch, sizeof(scratch), NULL)\00", align 1
@.str.362 = private unnamed_addr constant [57 x i8] c"bn2 = BN_signed_bin2bn(reversed, sizeof(reversed), NULL)\00", align 1

; Function Attrs: nounwind uwtable
define internal i32 @copy_reversed(ptr noundef %0, ptr noundef %1, i64 noundef %2) #0 {
  %4 = alloca ptr, align 8
  %5 = alloca ptr, align 8
  %6 = alloca i64, align 8
  store ptr %0, ptr %4, align 8, !tbaa !25
  store ptr %1, ptr %5, align 8, !tbaa !25
  store i64 %2, ptr %6, align 8, !tbaa !30
  %7 = load i64, ptr %6, align 8, !tbaa !30
  %8 = sub i64 %7, 1
  %9 = load ptr, ptr %4, align 8, !tbaa !25
  %10 = getelementptr inbounds nuw i8, ptr %9, i64 %8
  store ptr %10, ptr %4, align 8, !tbaa !25
  br label %11

11:                                               ; preds = %18, %3
  %12 = load i64, ptr %6, align 8, !tbaa !30
  %13 = icmp ugt i64 %12, 0
  br i1 %13, label %14, label %25

14:                                               ; preds = %11
  %15 = load ptr, ptr %5, align 8, !tbaa !25
  %16 = load i8, ptr %15, align 1, !tbaa !83
  %17 = load ptr, ptr %4, align 8, !tbaa !25
  store i8 %16, ptr %17, align 1, !tbaa !83
  br label %18

18:                                               ; preds = %14
  %19 = load ptr, ptr %5, align 8, !tbaa !25
  %20 = getelementptr inbounds nuw i8, ptr %19, i32 1
  store ptr %20, ptr %5, align 8, !tbaa !25
  %21 = load ptr, ptr %4, align 8, !tbaa !25
  %22 = getelementptr inbounds i8, ptr %21, i32 -1
  store ptr %22, ptr %4, align 8, !tbaa !25
  %23 = load i64, ptr %6, align 8, !tbaa !30
  %24 = add i64 %23, -1
  store i64 %24, ptr %6, align 8, !tbaa !30
  br label %11, !llvm.loop !84

25:                                               ; preds = %11
  ret i32 1
}

; Function Attrs: nounwind uwtable
define internal i32 @test_bn2signed(i32 noundef %0) #0 {
  %2 = alloca i32, align 4
  %3 = alloca [10 x i8], align 1
  %4 = alloca [10 x i8], align 1
  %5 = alloca ptr, align 8
  %6 = alloca ptr, align 8
  %7 = alloca ptr, align 8
  %8 = alloca i32, align 4
  store i32 %0, ptr %2, align 4, !tbaa !4
  call void @llvm.lifetime.start.p0(i64 10, ptr %3) #7
  call void @llvm.lifetime.start.p0(i64 10, ptr %4) #7
  call void @llvm.lifetime.start.p0(i64 8, ptr %5) #7
  %9 = load i32, ptr %2, align 4, !tbaa !4
  %10 = sext i32 %9 to i64
  %11 = getelementptr inbounds [43 x %struct.mpitest_st], ptr @kSignedTests_BE, i64 0, i64 %10
  store ptr %11, ptr %5, align 8, !tbaa !33
  call void @llvm.lifetime.start.p0(i64 8, ptr %6) #7
  store ptr null, ptr %6, align 8, !tbaa !13
  call void @llvm.lifetime.start.p0(i64 8, ptr %7) #7
  store ptr null, ptr %7, align 8, !tbaa !13
  call void @llvm.lifetime.start.p0(i64 4, ptr %8) #7
  store i32 0, ptr %8, align 4, !tbaa !4
  %12 = call ptr @BN_new()
  store ptr %12, ptr %6, align 8, !tbaa !13
  %13 = call i32 @test_ptr(ptr noundef @.str.17, i32 noundef 1935, ptr noundef @.str.238, ptr noundef %12)
  %14 = icmp ne i32 %13, 0
  br i1 %14, label %15, label %24

15:                                               ; preds = %1
  %16 = load ptr, ptr %5, align 8, !tbaa !33
  %17 = getelementptr inbounds nuw %struct.mpitest_st, ptr %16, i32 0, i32 0
  %18 = load ptr, ptr %17, align 8, !tbaa !35
  %19 = call i32 @BN_asc2bn(ptr noundef %6, ptr noundef %18)
  %20 = icmp ne i32 %19, 0
  %21 = zext i1 %20 to i32
  %22 = call i32 @test_true(ptr noundef @.str.17, i32 noundef 1936, ptr noundef @.str.338, i32 noundef %21)
  %23 = icmp ne i32 %22, 0
  br i1 %23, label %25, label %24

24:                                               ; preds = %15, %1
  br label %145

25:                                               ; preds = %15
  %26 = load ptr, ptr %5, align 8, !tbaa !33
  %27 = getelementptr inbounds nuw %struct.mpitest_st, ptr %26, i32 0, i32 2
  %28 = load i64, ptr %27, align 8, !tbaa !38
  %29 = sub i64 10, %28
  %30 = trunc i64 %29 to i32
  store i32 %30, ptr %2, align 4, !tbaa !4
  %31 = load ptr, ptr %6, align 8, !tbaa !13
  %32 = getelementptr inbounds [10 x i8], ptr %3, i64 0, i64 0
  %33 = call i32 @BN_signed_bn2bin(ptr noundef %31, ptr noundef %32, i32 noundef 10)
  %34 = call i32 @test_int_eq(ptr noundef @.str.17, i32 noundef 1946, ptr noundef @.str.354, ptr noundef @.str.340, i32 noundef %33, i32 noundef 10)
  %35 = icmp ne i32 %34, 0
  br i1 %35, label %36, label %60

36:                                               ; preds = %25
  %37 = getelementptr inbounds [10 x i8], ptr %4, i64 0, i64 0
  %38 = getelementptr inbounds [10 x i8], ptr %3, i64 0, i64 0
  %39 = call i32 @copy_reversed(ptr noundef %37, ptr noundef %38, i64 noundef 10)
  %40 = icmp ne i32 %39, 0
  %41 = zext i1 %40 to i32
  %42 = call i32 @test_true(ptr noundef @.str.17, i32 noundef 1947, ptr noundef @.str.355, i32 noundef %41)
  %43 = icmp ne i32 %42, 0
  br i1 %43, label %44, label %60

44:                                               ; preds = %36
  %45 = load ptr, ptr %5, align 8, !tbaa !33
  %46 = getelementptr inbounds nuw %struct.mpitest_st, ptr %45, i32 0, i32 1
  %47 = load ptr, ptr %46, align 8, !tbaa !37
  %48 = load ptr, ptr %5, align 8, !tbaa !33
  %49 = getelementptr inbounds nuw %struct.mpitest_st, ptr %48, i32 0, i32 2
  %50 = load i64, ptr %49, align 8, !tbaa !38
  %51 = getelementptr inbounds [10 x i8], ptr %3, i64 0, i64 0
  %52 = load i32, ptr %2, align 4, !tbaa !4
  %53 = sext i32 %52 to i64
  %54 = getelementptr inbounds i8, ptr %51, i64 %53
  %55 = load ptr, ptr %5, align 8, !tbaa !33
  %56 = getelementptr inbounds nuw %struct.mpitest_st, ptr %55, i32 0, i32 2
  %57 = load i64, ptr %56, align 8, !tbaa !38
  %58 = call i32 @test_mem_eq(ptr noundef @.str.17, i32 noundef 1948, ptr noundef @.str.342, ptr noundef @.str.356, ptr noundef %47, i64 noundef %50, ptr noundef %54, i64 noundef %57)
  %59 = icmp ne i32 %58, 0
  br i1 %59, label %61, label %60

60:                                               ; preds = %44, %36, %25
  br label %145

61:                                               ; preds = %44
  %62 = getelementptr inbounds [10 x i8], ptr %3, i64 0, i64 0
  %63 = call ptr @BN_signed_bin2bn(ptr noundef %62, i32 noundef 10, ptr noundef null)
  store ptr %63, ptr %7, align 8, !tbaa !13
  %64 = call i32 @test_ptr(ptr noundef @.str.17, i32 noundef 1951, ptr noundef @.str.357, ptr noundef %63)
  %65 = icmp ne i32 %64, 0
  br i1 %65, label %66, label %71

66:                                               ; preds = %61
  %67 = load ptr, ptr %6, align 8, !tbaa !13
  %68 = load ptr, ptr %7, align 8, !tbaa !13
  %69 = call i32 @test_BN_eq(ptr noundef @.str.17, i32 noundef 1952, ptr noundef @.str.242, ptr noundef @.str.345, ptr noundef %67, ptr noundef %68)
  %70 = icmp ne i32 %69, 0
  br i1 %70, label %72, label %71

71:                                               ; preds = %66, %61
  br label %145

72:                                               ; preds = %66
  %73 = load ptr, ptr %7, align 8, !tbaa !13
  call void @BN_free(ptr noundef %73)
  store ptr null, ptr %7, align 8, !tbaa !13
  %74 = getelementptr inbounds [10 x i8], ptr %4, i64 0, i64 0
  %75 = call ptr @BN_signed_lebin2bn(ptr noundef %74, i32 noundef 10, ptr noundef null)
  store ptr %75, ptr %7, align 8, !tbaa !13
  %76 = call i32 @test_ptr(ptr noundef @.str.17, i32 noundef 1959, ptr noundef @.str.358, ptr noundef %75)
  %77 = icmp ne i32 %76, 0
  br i1 %77, label %78, label %83

78:                                               ; preds = %72
  %79 = load ptr, ptr %6, align 8, !tbaa !13
  %80 = load ptr, ptr %7, align 8, !tbaa !13
  %81 = call i32 @test_BN_eq(ptr noundef @.str.17, i32 noundef 1960, ptr noundef @.str.242, ptr noundef @.str.345, ptr noundef %79, ptr noundef %80)
  %82 = icmp ne i32 %81, 0
  br i1 %82, label %84, label %83

83:                                               ; preds = %78, %72
  br label %145

84:                                               ; preds = %78
  %85 = load ptr, ptr %7, align 8, !tbaa !13
  call void @BN_free(ptr noundef %85)
  store ptr null, ptr %7, align 8, !tbaa !13
  %86 = load ptr, ptr %5, align 8, !tbaa !33
  %87 = getelementptr inbounds nuw %struct.mpitest_st, ptr %86, i32 0, i32 2
  %88 = load i64, ptr %87, align 8, !tbaa !38
  %89 = sub i64 10, %88
  %90 = trunc i64 %89 to i32
  store i32 %90, ptr %2, align 4, !tbaa !4
  %91 = load ptr, ptr %6, align 8, !tbaa !13
  %92 = getelementptr inbounds [10 x i8], ptr %3, i64 0, i64 0
  %93 = call i32 @BN_signed_bn2lebin(ptr noundef %91, ptr noundef %92, i32 noundef 10)
  %94 = call i32 @test_int_eq(ptr noundef @.str.17, i32 noundef 1973, ptr noundef @.str.359, ptr noundef @.str.340, i32 noundef %93, i32 noundef 10)
  %95 = icmp ne i32 %94, 0
  br i1 %95, label %96, label %120

96:                                               ; preds = %84
  %97 = getelementptr inbounds [10 x i8], ptr %4, i64 0, i64 0
  %98 = getelementptr inbounds [10 x i8], ptr %3, i64 0, i64 0
  %99 = call i32 @copy_reversed(ptr noundef %97, ptr noundef %98, i64 noundef 10)
  %100 = icmp ne i32 %99, 0
  %101 = zext i1 %100 to i32
  %102 = call i32 @test_true(ptr noundef @.str.17, i32 noundef 1974, ptr noundef @.str.355, i32 noundef %101)
  %103 = icmp ne i32 %102, 0
  br i1 %103, label %104, label %120

104:                                              ; preds = %96
  %105 = load ptr, ptr %5, align 8, !tbaa !33
  %106 = getelementptr inbounds nuw %struct.mpitest_st, ptr %105, i32 0, i32 1
  %107 = load ptr, ptr %106, align 8, !tbaa !37
  %108 = load ptr, ptr %5, align 8, !tbaa !33
  %109 = getelementptr inbounds nuw %struct.mpitest_st, ptr %108, i32 0, i32 2
  %110 = load i64, ptr %109, align 8, !tbaa !38
  %111 = getelementptr inbounds [10 x i8], ptr %4, i64 0, i64 0
  %112 = load i32, ptr %2, align 4, !tbaa !4
  %113 = sext i32 %112 to i64
  %114 = getelementptr inbounds i8, ptr %111, i64 %113
  %115 = load ptr, ptr %5, align 8, !tbaa !33
  %116 = getelementptr inbounds nuw %struct.mpitest_st, ptr %115, i32 0, i32 2
  %117 = load i64, ptr %116, align 8, !tbaa !38
  %118 = call i32 @test_mem_eq(ptr noundef @.str.17, i32 noundef 1975, ptr noundef @.str.342, ptr noundef @.str.360, ptr noundef %107, i64 noundef %110, ptr noundef %114, i64 noundef %117)
  %119 = icmp ne i32 %118, 0
  br i1 %119, label %121, label %120

120:                                              ; preds = %104, %96, %84
  br label %145

121:                                              ; preds = %104
  %122 = getelementptr inbounds [10 x i8], ptr %3, i64 0, i64 0
  %123 = call ptr @BN_signed_lebin2bn(ptr noundef %122, i32 noundef 10, ptr noundef null)
  store ptr %123, ptr %7, align 8, !tbaa !13
  %124 = call i32 @test_ptr(ptr noundef @.str.17, i32 noundef 1978, ptr noundef @.str.361, ptr noundef %123)
  %125 = icmp ne i32 %124, 0
  br i1 %125, label %126, label %131

126:                                              ; preds = %121
  %127 = load ptr, ptr %6, align 8, !tbaa !13
  %128 = load ptr, ptr %7, align 8, !tbaa !13
  %129 = call i32 @test_BN_eq(ptr noundef @.str.17, i32 noundef 1979, ptr noundef @.str.242, ptr noundef @.str.345, ptr noundef %127, ptr noundef %128)
  %130 = icmp ne i32 %129, 0
  br i1 %130, label %132, label %131

131:                                              ; preds = %126, %121
  br label %145

132:                                              ; preds = %126
  %133 = load ptr, ptr %7, align 8, !tbaa !13
  call void @BN_free(ptr noundef %133)
  store ptr null, ptr %7, align 8, !tbaa !13
  %134 = getelementptr inbounds [10 x i8], ptr %4, i64 0, i64 0
  %135 = call ptr @BN_signed_bin2bn(ptr noundef %134, i32 noundef 10, ptr noundef null)
  store ptr %135, ptr %7, align 8, !tbaa !13
  %136 = call i32 @test_ptr(ptr noundef @.str.17, i32 noundef 1986, ptr noundef @.str.362, ptr noundef %135)
  %137 = icmp ne i32 %136, 0
  br i1 %137, label %138, label %143

138:                                              ; preds = %132
  %139 = load ptr, ptr %6, align 8, !tbaa !13
  %140 = load ptr, ptr %7, align 8, !tbaa !13
  %141 = call i32 @test_BN_eq(ptr noundef @.str.17, i32 noundef 1987, ptr noundef @.str.242, ptr noundef @.str.345, ptr noundef %139, ptr noundef %140)
  %142 = icmp ne i32 %141, 0
  br i1 %142, label %144, label %143

143:                                              ; preds = %138, %132
  br label %145

144:                                              ; preds = %138
  store i32 1, ptr %8, align 4, !tbaa !4
  br label %145

145:                                              ; preds = %144, %143, %131, %120, %83, %71, %60, %24
  %146 = load ptr, ptr %7, align 8, !tbaa !13
  call void @BN_free(ptr noundef %146)
  %147 = load ptr, ptr %6, align 8, !tbaa !13
  call void @BN_free(ptr noundef %147)
  %148 = load i32, ptr %8, align 4, !tbaa !4
  call void @llvm.lifetime.end.p0(i64 4, ptr %8) #7
  call void @llvm.lifetime.end.p0(i64 8, ptr %7) #7
  call void @llvm.lifetime.end.p0(i64 8, ptr %6) #7
  call void @llvm.lifetime.end.p0(i64 8, ptr %5) #7
  call void @llvm.lifetime.end.p0(i64 10, ptr %4) #7
  call void @llvm.lifetime.end.p0(i64 10, ptr %3) #7
  ret i32 %148
}