; Function Attrs: nounwind uwtable
define internal range(i32 0, 2) i32 @test_bn2signed(i32 noundef %0) #1 {
  %2 = alloca [10 x i8], align 1
  %3 = alloca [10 x i8], align 1
  %4 = alloca ptr, align 8
  call void @llvm.lifetime.start.p0(i64 10, ptr nonnull %2) #8
  call void @llvm.lifetime.start.p0(i64 10, ptr nonnull %3) #8
  %5 = sext i32 %0 to i64
  %6 = getelementptr inbounds [43 x %struct.mpitest_st], ptr @kSignedTests_BE, i64 0, i64 %5
  call void @llvm.lifetime.start.p0(i64 8, ptr nonnull %4) #8
  %7 = tail call ptr @BN_new() #8
  store ptr %7, ptr %4, align 8, !tbaa !21
  %8 = tail call i32 @test_ptr(ptr noundef nonnull @.str.17, i32 noundef 1935, ptr noundef nonnull @.str.238, ptr noundef %7) #8
  %.not = icmp eq i32 %8, 0
  br i1 %.not, label %72, label %9

9:                                                ; preds = %1
  %10 = load ptr, ptr %6, align 8, !tbaa !26
  %11 = call i32 @BN_asc2bn(ptr noundef nonnull %4, ptr noundef %10) #8
  %12 = icmp ne i32 %11, 0
  %13 = zext i1 %12 to i32
  %14 = call i32 @test_true(ptr noundef nonnull @.str.17, i32 noundef 1936, ptr noundef nonnull @.str.338, i32 noundef %13) #8
  %.not21 = icmp eq i32 %14, 0
  br i1 %.not21, label %72, label %15

15:                                               ; preds = %9
  %16 = getelementptr inbounds nuw i8, ptr %6, i64 16
  %17 = load i64, ptr %16, align 8, !tbaa !31
  %18 = load ptr, ptr %4, align 8, !tbaa !21
  %19 = call i32 @BN_signed_bn2bin(ptr noundef %18, ptr noundef nonnull %2, i32 noundef 10) #8
  %20 = call i32 @test_int_eq(ptr noundef nonnull @.str.17, i32 noundef 1946, ptr noundef nonnull @.str.354, ptr noundef nonnull @.str.340, i32 noundef %19, i32 noundef 10) #8
  %.not22 = icmp eq i32 %20, 0
  br i1 %.not22, label %72, label %21

21:                                               ; preds = %15
  %22 = getelementptr inbounds nuw i8, ptr %3, i64 9
  br label %23

23:                                               ; preds = %23, %21
  %.011.i = phi i64 [ 10, %21 ], [ %27, %23 ]
  %.0710.i = phi ptr [ %2, %21 ], [ %25, %23 ]
  %.089.i = phi ptr [ %22, %21 ], [ %26, %23 ]
  %24 = load i8, ptr %.0710.i, align 1, !tbaa !32
  store i8 %24, ptr %.089.i, align 1, !tbaa !32
  %25 = getelementptr inbounds nuw i8, ptr %.0710.i, i64 1
  %26 = getelementptr inbounds i8, ptr %.089.i, i64 -1
  %27 = add nsw i64 %.011.i, -1
  %.not.i = icmp eq i64 %27, 0
  br i1 %.not.i, label %copy_reversed.exit, label %23, !llvm.loop !33

copy_reversed.exit:                               ; preds = %23
  %28 = call i32 @test_true(ptr noundef nonnull @.str.17, i32 noundef 1947, ptr noundef nonnull @.str.355, i32 noundef 1) #8
  %.not23 = icmp eq i32 %28, 0
  br i1 %.not23, label %72, label %29

29:                                               ; preds = %copy_reversed.exit
  %30 = getelementptr inbounds nuw i8, ptr %6, i64 8
  %31 = load ptr, ptr %30, align 8, !tbaa !30
  %32 = shl i64 %17, 32
  %sext = sub i64 42949672960, %32
  %33 = ashr exact i64 %sext, 32
  %34 = getelementptr inbounds i8, ptr %2, i64 %33
  %35 = call i32 @test_mem_eq(ptr noundef nonnull @.str.17, i32 noundef 1948, ptr noundef nonnull @.str.342, ptr noundef nonnull @.str.356, ptr noundef %31, i64 noundef %17, ptr noundef nonnull %34, i64 noundef %17) #8
  %.not24 = icmp eq i32 %35, 0
  br i1 %.not24, label %72, label %36

36:                                               ; preds = %29
  %37 = call ptr @BN_signed_bin2bn(ptr noundef nonnull %2, i32 noundef 10, ptr noundef null) #8
  %38 = call i32 @test_ptr(ptr noundef nonnull @.str.17, i32 noundef 1951, ptr noundef nonnull @.str.357, ptr noundef %37) #8
  %.not25 = icmp eq i32 %38, 0
  br i1 %.not25, label %72, label %39

39:                                               ; preds = %36
  %40 = load ptr, ptr %4, align 8, !tbaa !21
  %41 = call i32 @test_BN_eq(ptr noundef nonnull @.str.17, i32 noundef 1952, ptr noundef nonnull @.str.242, ptr noundef nonnull @.str.345, ptr noundef %40, ptr noundef %37) #8
  %.not26 = icmp eq i32 %41, 0
  br i1 %.not26, label %72, label %42

42:                                               ; preds = %39
  call void @BN_free(ptr noundef %37) #8
  %43 = call ptr @BN_signed_lebin2bn(ptr noundef nonnull %3, i32 noundef 10, ptr noundef null) #8
  %44 = call i32 @test_ptr(ptr noundef nonnull @.str.17, i32 noundef 1959, ptr noundef nonnull @.str.358, ptr noundef %43) #8
  %.not27 = icmp eq i32 %44, 0
  br i1 %.not27, label %72, label %45

45:                                               ; preds = %42
  %46 = load ptr, ptr %4, align 8, !tbaa !21
  %47 = call i32 @test_BN_eq(ptr noundef nonnull @.str.17, i32 noundef 1960, ptr noundef nonnull @.str.242, ptr noundef nonnull @.str.345, ptr noundef %46, ptr noundef %43) #8
  %.not28 = icmp eq i32 %47, 0
  br i1 %.not28, label %72, label %48

48:                                               ; preds = %45
  call void @BN_free(ptr noundef %43) #8
  %49 = load ptr, ptr %4, align 8, !tbaa !21
  %50 = call i32 @BN_signed_bn2lebin(ptr noundef %49, ptr noundef nonnull %2, i32 noundef 10) #8
  %51 = call i32 @test_int_eq(ptr noundef nonnull @.str.17, i32 noundef 1973, ptr noundef nonnull @.str.359, ptr noundef nonnull @.str.340, i32 noundef %50, i32 noundef 10) #8
  %.not29 = icmp eq i32 %51, 0
  br i1 %.not29, label %72, label %.preheader

.preheader:                                       ; preds = %48, %.preheader
  %.011.i37 = phi i64 [ %55, %.preheader ], [ 10, %48 ]
  %.0710.i38 = phi ptr [ %53, %.preheader ], [ %2, %48 ]
  %.089.i39 = phi ptr [ %54, %.preheader ], [ %22, %48 ]
  %52 = load i8, ptr %.0710.i38, align 1, !tbaa !32
  store i8 %52, ptr %.089.i39, align 1, !tbaa !32
  %53 = getelementptr inbounds nuw i8, ptr %.0710.i38, i64 1
  %54 = getelementptr inbounds i8, ptr %.089.i39, i64 -1
  %55 = add nsw i64 %.011.i37, -1
  %.not.i40 = icmp eq i64 %55, 0
  br i1 %.not.i40, label %copy_reversed.exit41, label %.preheader, !llvm.loop !33

copy_reversed.exit41:                             ; preds = %.preheader
  %56 = call i32 @test_true(ptr noundef nonnull @.str.17, i32 noundef 1974, ptr noundef nonnull @.str.355, i32 noundef 1) #8
  %.not30 = icmp eq i32 %56, 0
  br i1 %.not30, label %72, label %57

57:                                               ; preds = %copy_reversed.exit41
  %58 = getelementptr inbounds i8, ptr %3, i64 %33
  %59 = call i32 @test_mem_eq(ptr noundef nonnull @.str.17, i32 noundef 1975, ptr noundef nonnull @.str.342, ptr noundef nonnull @.str.360, ptr noundef %31, i64 noundef %17, ptr noundef nonnull %58, i64 noundef %17) #8
  %.not32 = icmp eq i32 %59, 0
  br i1 %.not32, label %72, label %60

60:                                               ; preds = %57
  %61 = call ptr @BN_signed_lebin2bn(ptr noundef nonnull %2, i32 noundef 10, ptr noundef null) #8
  %62 = call i32 @test_ptr(ptr noundef nonnull @.str.17, i32 noundef 1978, ptr noundef nonnull @.str.361, ptr noundef %61) #8
  %.not33 = icmp eq i32 %62, 0
  br i1 %.not33, label %72, label %63

63:                                               ; preds = %60
  %64 = load ptr, ptr %4, align 8, !tbaa !21
  %65 = call i32 @test_BN_eq(ptr noundef nonnull @.str.17, i32 noundef 1979, ptr noundef nonnull @.str.242, ptr noundef nonnull @.str.345, ptr noundef %64, ptr noundef %61) #8
  %.not34 = icmp eq i32 %65, 0
  br i1 %.not34, label %72, label %66

66:                                               ; preds = %63
  call void @BN_free(ptr noundef %61) #8
  %67 = call ptr @BN_signed_bin2bn(ptr noundef nonnull %3, i32 noundef 10, ptr noundef null) #8
  %68 = call i32 @test_ptr(ptr noundef nonnull @.str.17, i32 noundef 1986, ptr noundef nonnull @.str.362, ptr noundef %67) #8
  %.not35 = icmp eq i32 %68, 0
  br i1 %.not35, label %72, label %69

69:                                               ; preds = %66
  %70 = load ptr, ptr %4, align 8, !tbaa !21
  %71 = call i32 @test_BN_eq(ptr noundef nonnull @.str.17, i32 noundef 1987, ptr noundef nonnull @.str.242, ptr noundef nonnull @.str.345, ptr noundef %70, ptr noundef %67) #8
  %.not36 = icmp ne i32 %71, 0
  %spec.select = zext i1 %.not36 to i32
  br label %72

72:                                               ; preds = %69, %66, %60, %63, %48, %copy_reversed.exit41, %57, %42, %45, %36, %39, %15, %copy_reversed.exit, %29, %1, %9
  %.020 = phi ptr [ %67, %66 ], [ %61, %63 ], [ %61, %60 ], [ null, %57 ], [ null, %copy_reversed.exit41 ], [ null, %48 ], [ %43, %45 ], [ %43, %42 ], [ %37, %39 ], [ %37, %36 ], [ null, %29 ], [ null, %copy_reversed.exit ], [ null, %15 ], [ null, %9 ], [ null, %1 ], [ %67, %69 ]
  %.0 = phi i32 [ 0, %66 ], [ 0, %63 ], [ 0, %60 ], [ 0, %57 ], [ 0, %copy_reversed.exit41 ], [ 0, %48 ], [ 0, %45 ], [ 0, %42 ], [ 0, %39 ], [ 0, %36 ], [ 0, %29 ], [ 0, %copy_reversed.exit ], [ 0, %15 ], [ 0, %9 ], [ 0, %1 ], [ %spec.select, %69 ]
  call void @BN_free(ptr noundef %.020) #8
  %73 = load ptr, ptr %4, align 8, !tbaa !21
  call void @BN_free(ptr noundef %73) #8
  call void @llvm.lifetime.end.p0(i64 8, ptr nonnull %4) #8
  call void @llvm.lifetime.end.p0(i64 10, ptr nonnull %3) #8
  call void @llvm.lifetime.end.p0(i64 10, ptr nonnull %2) #8
  ret i32 %.0
}